; Function Attrs: nounwind uwtable
define internal range(i32 0, 2) i32 @blake2b512_internal_init(ptr noundef %0, ptr noundef %1) #1 {
  %3 = tail call i32 @ossl_prov_is_running() #6
  %.not = icmp eq i32 %3, 0
  br i1 %.not, label %13, label %4

4:                                                ; preds = %2
  %5 = tail call i32 @ossl_blake2b_set_ctx_params(ptr noundef %0, ptr noundef %1)
  %.not3 = icmp eq i32 %5, 0
  br i1 %.not3, label %13, label %6

6:                                                ; preds = %4
  %7 = getelementptr inbounds nuw i8, ptr %0, i64 240
  %8 = load i8, ptr %7, align 8, !tbaa !19
  tail call void @ossl_blake2b_param_init(ptr noundef nonnull %7) #6
  %.not.i = icmp eq i8 %8, 0
  br i1 %.not.i, label %ossl_blake2b512_init.exit, label %9

9:                                                ; preds = %6
  store i8 %8, ptr %7, align 8, !tbaa !19
  br label %ossl_blake2b512_init.exit

ossl_blake2b512_init.exit:                        ; preds = %6, %9
  %10 = tail call i32 @ossl_blake2b_init(ptr noundef nonnull %0, ptr noundef nonnull %7) #6
  %11 = icmp ne i32 %10, 0
  %12 = zext i1 %11 to i32
  br label %13

13:                                               ; preds = %ossl_blake2b512_init.exit, %4, %2
  %14 = phi i32 [ 0, %4 ], [ 0, %2 ], [ %12, %ossl_blake2b512_init.exit ]
  ret i32 %14
}